; Function Attrs: nounwind uwtable
define dso_local void @submodule_free(ptr noundef readonly captures(none) %0) local_unnamed_addr #0 {
  %2 = getelementptr inbounds nuw i8, ptr %0, i64 376
  %3 = load ptr, ptr %2, align 8, !tbaa !31
  %.not = icmp eq ptr %3, null
  br i1 %.not, label %5, label %4

4:                                                ; preds = %1
  tail call fastcc void @submodule_cache_clear(ptr noundef nonnull %3)
  br label %5

5:                                                ; preds = %4, %1
  ret void
}